; Function Attrs: mustprogress uwtable
define hidden noundef range(i32 -1, 1) i32 @_ZN4ncnn7Softmax10load_paramERKNS_9ParamDictE(ptr noundef nonnull align 8 captures(none) dereferenceable(212) initializes((208, 212)) %0, ptr noundef nonnull align 8 dereferenceable(16) %1) unnamed_addr #2 align 2 {
  %3 = tail call noundef i32 @_ZNK4ncnn9ParamDict3getEii(ptr noundef nonnull align 8 dereferenceable(16) %1, i32 noundef 0, i32 noundef 0)
  %4 = getelementptr inbounds nuw i8, ptr %0, i64 208
  store i32 %3, ptr %4, align 8, !tbaa !4
  %5 = tail call noundef i32 @_ZNK4ncnn9ParamDict3getEii(ptr noundef nonnull align 8 dereferenceable(16) %1, i32 noundef 1, i32 noundef 0)
  %6 = icmp ne i32 %5, 0
  %7 = load i32, ptr %4, align 8
  %.not = icmp eq i32 %7, 0
  %or.cond = select i1 %6, i1 true, i1 %.not
  br i1 %or.cond, label %12, label %8

8:                                                ; preds = %2
  %9 = load ptr, ptr @stderr, align 8, !tbaa !26
  %10 = tail call i64 @fwrite(ptr nonnull @.str, i64 36, i64 1, ptr %9) #16
  %11 = load ptr, ptr @stderr, align 8, !tbaa !26
  %fputc = tail call i32 @fputc(i32 10, ptr %11)
  br label %12

12:                                               ; preds = %2, %8
  %.0 = phi i32 [ -1, %8 ], [ 0, %2 ]
  ret i32 %.0
}